; Function Attrs: mustprogress uwtable
define hidden ptr @_ZN19OpenColorIO_v2_5dev10OpRcPtrVec5eraseEN9__gnu_cxx17__normal_iteratorIPKSt10shared_ptrINS_2OpEESt6vectorIS5_SaIS5_EEEE(ptr noundef nonnull align 8 dereferenceable(144) %0, ptr %1) local_unnamed_addr #6 align 2 {
  %3 = load ptr, ptr %0, align 8, !tbaa !202
  %4 = ptrtoint ptr %1 to i64
  %5 = ptrtoint ptr %3 to i64
  %6 = sub i64 %4, %5
  %7 = getelementptr inbounds i8, ptr %3, i64 %6
  %8 = tail call ptr @_ZNSt6vectorISt10shared_ptrIN19OpenColorIO_v2_5dev2OpEESaIS3_EE8_M_eraseEN9__gnu_cxx17__normal_iteratorIPS3_S5_EE(ptr noundef nonnull align 8 dereferenceable(24) %0, ptr %7)
  ret ptr %8
}